target datalayout = "e-m:e-p270:32:32-p271:32:32-p272:64:64-i64:64-i128:128-f80:128-n8:16:32:64-S128"
target triple = "x86_64-pc-linux-gnu"

%struct.JNINativeInterface_ = type { ptr, ptr, ptr, ptr, ptr, ptr, ptr, ptr, ptr, ptr, ptr, ptr, ptr, ptr, ptr, ptr, ptr, ptr, ptr, ptr, ptr, ptr, ptr, ptr, ptr, ptr, ptr, ptr, ptr, ptr, ptr, ptr, ptr, ptr, ptr, ptr, ptr, ptr, ptr, ptr, ptr, ptr, ptr, ptr, ptr, ptr, ptr, ptr, ptr, ptr, ptr, ptr, ptr, ptr, ptr, ptr, ptr, ptr, ptr, ptr, ptr, ptr, ptr, ptr, ptr, ptr, ptr, ptr, ptr, ptr, ptr, ptr, ptr, ptr, ptr, ptr, ptr, ptr, ptr, ptr, ptr, ptr, ptr, ptr, ptr, ptr, ptr, ptr, ptr, ptr, ptr, ptr, ptr, ptr, ptr, ptr, ptr, ptr, ptr, ptr, ptr, ptr, ptr, ptr, ptr, ptr, ptr, ptr, ptr, ptr, ptr, ptr, ptr, ptr, ptr, ptr, ptr, ptr, ptr, ptr, ptr, ptr, ptr, ptr, ptr, ptr, ptr, ptr, ptr, ptr, ptr, ptr, ptr, ptr, ptr, ptr, ptr, ptr, ptr, ptr, ptr, ptr, ptr, ptr, ptr, ptr, ptr, ptr, ptr, ptr, ptr, ptr, ptr, ptr, ptr, ptr, ptr, ptr, ptr, ptr, ptr, ptr, ptr, ptr, ptr, ptr, ptr, ptr, ptr, ptr, ptr, ptr, ptr, ptr, ptr, ptr, ptr, ptr, ptr, ptr, ptr, ptr, ptr, ptr, ptr, ptr, ptr, ptr, ptr, ptr, ptr, ptr, ptr, ptr, ptr, ptr, ptr, ptr, ptr, ptr, ptr, ptr, ptr, ptr, ptr, ptr, ptr, ptr, ptr, ptr, ptr, ptr, ptr, ptr, ptr, ptr, ptr, ptr, ptr, ptr, ptr, ptr, ptr, ptr, ptr, ptr, ptr, ptr, ptr, ptr, ptr, ptr, ptr, ptr, ptr }

@.str.7 = private unnamed_addr constant [5 x i8] c"read\00", align 1

; Function Attrs: nounwind uwtable
define i32 @Java_sun_tools_attach_VirtualMachineImpl_read(ptr noundef %0, ptr noundef %1, i32 noundef %2, ptr noundef %3, i32 noundef %4, i32 noundef %5) #0 {
  %7 = alloca ptr, align 8
  %8 = alloca ptr, align 8
  %9 = alloca i32, align 4
  %10 = alloca ptr, align 8
  %11 = alloca i32, align 4
  %12 = alloca i32, align 4
  %13 = alloca [128 x i8], align 16
  %14 = alloca i64, align 8
  %15 = alloca i64, align 8
  %16 = alloca i64, align 8
  store ptr %0, ptr %7, align 8
  store ptr %1, ptr %8, align 8
  store i32 %2, ptr %9, align 4
  store ptr %3, ptr %10, align 8
  store i32 %4, ptr %11, align 4
  store i32 %5, ptr %12, align 4
  store i64 128, ptr %14, align 8
  %17 = load i32, ptr %12, align 4
  %18 = load i32, ptr %11, align 4
  %19 = sub nsw i32 %17, %18
  %20 = sext i32 %19 to i64
  store i64 %20, ptr %16, align 8
  %21 = load i64, ptr %14, align 8
  %22 = load i64, ptr %16, align 8
  %23 = icmp ugt i64 %21, %22
  br i1 %23, label %24, label %26

24:                                               ; preds = %6
  %25 = load i64, ptr %16, align 8
  store i64 %25, ptr %14, align 8
  br label %26

26:                                               ; preds = %24, %6
  br label %27

27:                                               ; preds = %26
  br label %28

28:                                               ; preds = %40, %27
  %29 = load i32, ptr %9, align 4
  %30 = getelementptr inbounds [128 x i8], ptr %13, i64 0, i64 0
  %31 = load i64, ptr %14, align 8
  %32 = call i64 @read(i32 noundef %29, ptr noundef %30, i64 noundef %31)
  store i64 %32, ptr %15, align 8
  br label %33

33:                                               ; preds = %28
  %34 = load i64, ptr %15, align 8
  %35 = icmp eq i64 %34, -1
  br i1 %35, label %36, label %40

36:                                               ; preds = %33
  %37 = call ptr @__errno_location() #6
  %38 = load i32, ptr %37, align 4
  %39 = icmp eq i32 %38, 4
  br label %40

40:                                               ; preds = %36, %33
  %41 = phi i1 [ false, %33 ], [ %39, %36 ]
  br i1 %41, label %28, label %42, !llvm.loop !6

42:                                               ; preds = %40
  br label %43

43:                                               ; preds = %42
  %44 = load i64, ptr %15, align 8
  %45 = icmp eq i64 %44, -1
  br i1 %45, label %46, label %48

46:                                               ; preds = %43
  %47 = load ptr, ptr %7, align 8
  call void @JNU_ThrowIOExceptionWithLastError(ptr noundef %47, ptr noundef @.str.7)
  br label %64

48:                                               ; preds = %43
  %49 = load i64, ptr %15, align 8
  %50 = icmp eq i64 %49, 0
  br i1 %50, label %51, label %52

51:                                               ; preds = %48
  store i64 -1, ptr %15, align 8
  br label %63

52:                                               ; preds = %48
  %53 = load ptr, ptr %7, align 8
  %54 = load ptr, ptr %53, align 8
  %55 = getelementptr inbounds %struct.JNINativeInterface_, ptr %54, i32 0, i32 208
  %56 = load ptr, ptr %55, align 8
  %57 = load ptr, ptr %7, align 8
  %58 = load ptr, ptr %10, align 8
  %59 = load i32, ptr %11, align 4
  %60 = load i64, ptr %15, align 8
  %61 = trunc i64 %60 to i32
  %62 = getelementptr inbounds [128 x i8], ptr %13, i64 0, i64 0
  call void %56(ptr noundef %57, ptr noundef %58, i32 noundef %59, i32 noundef %61, ptr noundef %62)
  br label %63

63:                                               ; preds = %52, %51
  br label %64

64:                                               ; preds = %63, %46
  %65 = load i64, ptr %15, align 8
  %66 = trunc i64 %65 to i32
  ret i32 %66
}