; Function Attrs: nounwind uwtable
define noundef i32 @Java_sun_tools_attach_VirtualMachineImpl_read(ptr noundef %0, ptr nocapture noundef readnone %1, i32 noundef %2, ptr noundef %3, i32 noundef %4, i32 noundef %5) local_unnamed_addr #0 {
  %7 = alloca [128 x i8], align 16
  %8 = sub nsw i32 %5, %4
  %narrow = tail call i32 @llvm.umin.i32(i32 %8, i32 128)
  %spec.select = zext nneg i32 %narrow to i64
  br label %9

9:                                                ; preds = %11, %6
  %10 = call i64 @read(i32 noundef %2, ptr noundef nonnull %7, i64 noundef %spec.select) #11
  switch i64 %10, label %15 [
    i64 -1, label %11
    i64 0, label %.loopexit
  ]

11:                                               ; preds = %9
  %12 = tail call ptr @__errno_location() #12
  %13 = load i32, ptr %12, align 4
  %14 = icmp eq i32 %13, 4
  br i1 %14, label %9, label %.critedge, !llvm.loop !6

.critedge:                                        ; preds = %11
  tail call void @JNU_ThrowIOExceptionWithLastError(ptr noundef %0, ptr noundef nonnull @.str.7) #11
  br label %.loopexit

15:                                               ; preds = %9
  %16 = load ptr, ptr %0, align 8
  %17 = getelementptr inbounds i8, ptr %16, i64 1664
  %18 = load ptr, ptr %17, align 8
  %19 = trunc i64 %10 to i32
  call void %18(ptr noundef nonnull %0, ptr noundef %3, i32 noundef %4, i32 noundef %19, ptr noundef nonnull %7) #11
  br label %.loopexit

.loopexit:                                        ; preds = %9, %15, %.critedge
  %.016 = phi i32 [ -1, %.critedge ], [ %19, %15 ], [ -1, %9 ]
  ret i32 %.016
}